; Function Attrs: mustprogress nofree noinline norecurse nosync nounwind willreturn memory(argmem: write) uwtable
define internal fastcc void @_ZN7testing8internalL21StackLowerThanAddressEPKvPb(ptr noundef nonnull readnone %0, ptr noundef nonnull writeonly captures(none) initializes((0, 1)) %1) unnamed_addr #43 {
  %3 = alloca i32, align 4
  call void @llvm.lifetime.start.p0(i64 4, ptr nonnull %3) #57
  %4 = icmp ult ptr %3, %0
  %5 = zext i1 %4 to i8
  store i8 %5, ptr %1, align 1, !tbaa !28
  call void @llvm.lifetime.end.p0(i64 4, ptr nonnull %3) #57
  ret void
}